target datalayout = "e-m:e-p270:32:32-p271:32:32-p272:64:64-i64:64-i128:128-f80:128-n8:16:32:64-S128"
target triple = "x86_64-pc-linux-gnu"

$_ZN8rawspeed18RawParserExceptionD0Ev = comdat any

@_ZTVN8rawspeed18RawParserExceptionE = hidden unnamed_addr constant { [6 x ptr] } { [6 x ptr] [ptr null, ptr @_ZTIN8rawspeed18RawParserExceptionE, ptr @_ZNSt13runtime_errorD2Ev, ptr @_ZN8rawspeed18RawParserExceptionD0Ev, ptr @_ZNKSt13runtime_error4whatEv, ptr @_ZNK8rawspeed18RawParserException6anchorEv] }, align 8
@_ZTVN10__cxxabiv120__si_class_type_infoE = external global [0 x ptr]
@_ZTSN8rawspeed18RawParserExceptionE = hidden constant [32 x i8] c"N8rawspeed18RawParserExceptionE\00", align 1
@_ZTIN8rawspeed17RawspeedExceptionE = external constant ptr
@_ZTIN8rawspeed18RawParserExceptionE = hidden constant { ptr, ptr, ptr } { ptr getelementptr inbounds (ptr, ptr @_ZTVN10__cxxabiv120__si_class_type_infoE, i64 2), ptr @_ZTSN8rawspeed18RawParserExceptionE, ptr @_ZTIN8rawspeed17RawspeedExceptionE }, align 8

; Function Attrs: mustprogress nofree norecurse nosync nounwind willreturn memory(none) uwtable
define hidden void @_ZNK8rawspeed18RawParserException6anchorEv(ptr nocapture nonnull readnone align 8 %0) unnamed_addr #0 align 2 {
  ret void
}

; Function Attrs: nounwind
declare void @_ZNSt13runtime_errorD2Ev(ptr noundef nonnull align 8 dereferenceable(16)) unnamed_addr #1

; Function Attrs: inlinehint mustprogress nounwind uwtable
define linkonce_odr hidden void @_ZN8rawspeed18RawParserExceptionD0Ev(ptr noundef nonnull align 8 dereferenceable(16) %0) unnamed_addr #2 comdat align 2 {
  tail call void @_ZNSt13runtime_errorD2Ev(ptr noundef nonnull align 8 dereferenceable(16) %0) #4
  tail call void @_ZdlPv(ptr noundef nonnull %0) #5
  ret void
}

; Function Attrs: nounwind
declare noundef ptr @_ZNKSt13runtime_error4whatEv(ptr noundef nonnull align 8 dereferenceable(16)) unnamed_addr #1

; Function Attrs: nobuiltin nounwind
declare void @_ZdlPv(ptr noundef) local_unnamed_addr #3


!llvm.linker.options = !{}
!llvm.module.flags = !{!0, !1, !2, !3, !4, !5}

!0 = !{i32 7, !"Dwarf Version", i32 5}
!1 = !{i32 2, !"Debug Info Version", i32 3}
!2 = !{i32 1, !"wchar_size", i32 4}
!3 = !{i32 8, !"PIC Level", i32 2}
!4 = !{i32 7, !"uwtable", i32 2}
!5 = !{i32 7, !"debug-info-assignment-tracking", i1 true}
